; Function Attrs: inlinehint mustprogress nounwind uwtable
define internal void @_ZN3gmx12_GLOBAL__N_124CommandLineOptionsModuleD0Ev(ptr noundef nonnull align 8 dereferenceable(64) initializes((0, 8)) %0) unnamed_addr #7 align 2 personality ptr @__gxx_personality_v0 {
  store ptr getelementptr inbounds nuw inrange(-16, 56) (i8, ptr @_ZTVN3gmx12_GLOBAL__N_124CommandLineOptionsModuleE, i64 16), ptr %0, align 8, !tbaa !9
  %2 = getelementptr inbounds nuw i8, ptr %0, i64 56
  %3 = load ptr, ptr %2, align 8, !tbaa !4
  %.not.i.i = icmp eq ptr %3, null
  br i1 %.not.i.i, label %_ZNSt10unique_ptrIN3gmx25ICommandLineOptionsModuleESt14default_deleteIS1_EED2Ev.exit.i, label %_ZNKSt14default_deleteIN3gmx25ICommandLineOptionsModuleEEclEPS1_.exit.i.i

_ZNKSt14default_deleteIN3gmx25ICommandLineOptionsModuleEEclEPS1_.exit.i.i: ; preds = %1
  %4 = load ptr, ptr %3, align 8, !tbaa !9
  %5 = getelementptr inbounds nuw i8, ptr %4, i64 8
  %6 = load ptr, ptr %5, align 8
  tail call void %6(ptr noundef nonnull align 8 dereferenceable(8) %3) #22
  br label %_ZNSt10unique_ptrIN3gmx25ICommandLineOptionsModuleESt14default_deleteIS1_EED2Ev.exit.i

_ZNSt10unique_ptrIN3gmx25ICommandLineOptionsModuleESt14default_deleteIS1_EED2Ev.exit.i: ; preds = %_ZNKSt14default_deleteIN3gmx25ICommandLineOptionsModuleEEclEPS1_.exit.i.i, %1
  store ptr null, ptr %2, align 8, !tbaa !4
  %7 = getelementptr inbounds nuw i8, ptr %0, i64 40
  %8 = load ptr, ptr %7, align 8, !tbaa !26
  %.not.i1.i = icmp eq ptr %8, null
  br i1 %.not.i1.i, label %_ZN3gmx12_GLOBAL__N_124CommandLineOptionsModuleD2Ev.exit, label %9

9:                                                ; preds = %_ZNSt10unique_ptrIN3gmx25ICommandLineOptionsModuleESt14default_deleteIS1_EED2Ev.exit.i
  %10 = getelementptr inbounds nuw i8, ptr %0, i64 24
  %11 = invoke noundef zeroext i1 %8(ptr noundef nonnull align 8 dereferenceable(32) %10, ptr noundef nonnull align 8 dereferenceable(32) %10, i32 noundef 3)
          to label %_ZN3gmx12_GLOBAL__N_124CommandLineOptionsModuleD2Ev.exit unwind label %12

12:                                               ; preds = %9
  %13 = landingpad { ptr, i32 }
          catch ptr null
  %14 = extractvalue { ptr, i32 } %13, 0
  tail call void @__clang_call_terminate(ptr %14) #20
  unreachable

_ZN3gmx12_GLOBAL__N_124CommandLineOptionsModuleD2Ev.exit: ; preds = %_ZNSt10unique_ptrIN3gmx25ICommandLineOptionsModuleESt14default_deleteIS1_EED2Ev.exit.i, %9
  tail call void @_ZdlPvm(ptr noundef nonnull %0, i64 noundef 64) #23
  ret void
}